; Function Attrs: mustprogress nofree nounwind willreturn memory(read, inaccessiblemem: none) uwtable
define dso_local noundef zeroext i1 @_ZNK4base11BinaryValue6EqualsEPKNS_5ValueE(ptr nocapture noundef nonnull readonly align 8 dereferenceable(32) %this, ptr nocapture noundef readonly %other) unnamed_addr #11 align 2 {
entry:
  %type_.i = getelementptr inbounds i8, ptr %other, i64 8
  %0 = load i32, ptr %type_.i, align 8
  %type_.i3 = getelementptr inbounds i8, ptr %this, i64 8
  %1 = load i32, ptr %type_.i3, align 8
  %cmp.not = icmp eq i32 %0, %1
  br i1 %cmp.not, label %if.end, label %return

if.end:                                           ; preds = %entry
  %size_ = getelementptr inbounds i8, ptr %other, i64 24
  %2 = load i64, ptr %size_, align 8
  %size_3 = getelementptr inbounds i8, ptr %this, i64 24
  %3 = load i64, ptr %size_3, align 8
  %cmp4.not = icmp eq i64 %2, %3
  br i1 %cmp4.not, label %if.end6, label %return

if.end6:                                          ; preds = %if.end
  %buffer_.i = getelementptr inbounds i8, ptr %this, i64 16
  %4 = load ptr, ptr %buffer_.i, align 8
  %buffer_.i4 = getelementptr inbounds i8, ptr %other, i64 16
  %5 = load ptr, ptr %buffer_.i4, align 8
  %bcmp = tail call i32 @bcmp(ptr %4, ptr %5, i64 %2)
  %tobool.not = icmp eq i32 %bcmp, 0
  br label %return

return:                                           ; preds = %if.end, %entry, %if.end6
  %retval.0 = phi i1 [ %tobool.not, %if.end6 ], [ false, %entry ], [ false, %if.end ]
  ret i1 %retval.0
}